(lp0
F0.02970361622417663
aF0.02534002450151493
aF-0.11162678531790904
a.(lp0
F0.0359401214711975
aF0.018203582247627248
aF-0.11078834466777661
a.(lp0
F0.03181741557571033
aF0.03443979957634728
aF-0.11287971972744647
a.(lp0
F0.0730251247705394
aF0.02533849081472297
aF-0.1178593049518674
a.(lp0
F0.11056352281796172
aF0.028474096941652864
aF-0.12108958366239647
a.(lp0
F0.12329586127680194
aF0.05572662960682036
aF-0.12360649150830848
a.(lp0
F0.12693852506760095
aF0.0313071810818432
aF-0.12131294041503321
a.